"File: Sys_Init.C    Assembler  Version HGASM0202      Page 1


   1  0000              ; Generated by holtek-gcc v3.19, Fri Jul 31 11:07:05 2020
   2  0000              ; 
   3  0000              ; Configuration:
   4  0000              ;       without long instruction
   5  0000              ;       Single ROM, Multi-RAM
   6  0000              ;       bits_per_rom_unit:16
   7  0000              ;       with mp1
   8  0000              ;       with tbhp, address(0x9)
   9  0000              ;          Use tabrd-const
  10  0000              ;       
  11  0000              ;       
  12  0000              ;       
  13  0000              ; use 'tabrdc' instead of 'tabrd'
  14  0000              ;       
  15  0000              
  16  0000              #pragma translator "holtek-gcc 4.6.4" "3.19" "build 20130711"
  17  0000              ; Rebuild 718
  18  0000              
  19  0000              ir equ [2]
  20  0000              mp equ [3]
  21  0000              sbp equ [1]
  22  0000              acc equ [5]
  23  0000              bp equ [4]
  24  0000              tblp equ [7]
  25  0000              tbhp equ [9]
  26  0000              status equ [10]
  27  0000              c equ [10].0
  28  0000              ac equ [10].1
  29  0000              z equ [10].2
  30  0000              ov equ [10].3
  31  0000              intc equ [11]
  32  0000              
  33  0000              extern ra:byte
  34  0000              extern rb:byte
  35  0000              extern rc:byte
  36  0000              extern rd:byte
  37  0000              extern re:byte
  38  0000              extern rf:byte
  39  0000              extern rg:byte
  40  0000              extern rh:byte
  41  0000              extern _Crom2Prom:near
  42  0000              extern _Crom2PromNext:near
  43  0000              
  44  0000              RAMBANK 0 @HCCINIT, @HCCINIT0
  45  0000              
  46  0000              RAMBANK 0 @BITDATASEC, @BITDATASEC1
  47  0000              @HCCINIT	.section 'data'
  48  0000              @HCCINIT0	.section 'data'
  49  0000              @BITDATASEC	 .section 'data'
  50  0000              @BITDATASEC1	 .section 'data'
  51  0000              
  52  0000              #pragma debug scope 1 1
  53  0000              	extern __DELAY3:near
  54  0000              	extern __DELAYX3:near
  55  0000              	extern __DELAYX6:near
  56  0000              	extern __DELAYY5:near
  57  0000              	extern __DELAYY3:near
  58  0000              	extern _builtin_holtek_delay_2:byte
  59  0000              ___pa equ [20]
"File: Sys_Init.ASM  Assembler  Version HGASM0202      Page 2

  60  0000              public _Task_500ms
  61  0000              #pragma debug scope 2 1

  25  0000              #line 25 "C:\ChipsGarden\醇法\MK8000\MK8000-Power PCB\UART2CAPTUREwith8bitsMCU\UART2CAPTUREwith8bitsMCU\Sys_Init.C"
  25  0000              _Task_500ms .section 'code'
  25  0000              _Task_500ms proc
  26  0000              #line 26 "C:\ChipsGarden\醇法\MK8000\MK8000-Power PCB\UART2CAPTUREwith8bitsMCU\UART2CAPTUREwith8bitsMCU\Sys_Init.C"
  26  0000  3800     E  	snz _interrupt_flag[0].1
  26  0001  2800     R  	jmp _L1
  27  0002              #line 27 "C:\ChipsGarden\醇法\MK8000\MK8000-Power PCB\UART2CAPTUREwith8bitsMCU\UART2CAPTUREwith8bitsMCU\Sys_Init.C"
  27  0002  3400     E  	clr _interrupt_flag[0].1
  28  0003              #line 28 "C:\ChipsGarden\醇法\MK8000\MK8000-Power PCB\UART2CAPTUREwith8bitsMCU\UART2CAPTUREwith8bitsMCU\Sys_Init.C"
  28  0003  1400     R  	inca _count_2sec[0]
  28  0004  0080     E  	mov ra,a
  28  0005  0700     E  	mov a,ra
  28  0006  0080     R  	mov _count_2sec[0],a
  29  0007              #line 29 "C:\ChipsGarden\醇法\MK8000\MK8000-Power PCB\UART2CAPTUREwith8bitsMCU\UART2CAPTUREwith8bitsMCU\Sys_Init.C"
  29  0007  0F03        	mov a,3
  29  0008  0200     E  	sub a,ra
  29  0009  3C0A        	sz c
  29  000A  2800     R  	jmp _L1
  30  000B              #line 30 "C:\ChipsGarden\醇法\MK8000\MK8000-Power PCB\UART2CAPTUREwith8bitsMCU\UART2CAPTUREwith8bitsMCU\Sys_Init.C"
  30  000B  1F00     R  	clr _count_2sec[0]
  31  000C              #line 31 "C:\ChipsGarden\醇法\MK8000\MK8000-Power PCB\UART2CAPTUREwith8bitsMCU\UART2CAPTUREwith8bitsMCU\Sys_Init.C"
  31  000C  3C00     R  	sz _system_flag[0].0
  31  000D  2800     R  	jmp _L5
  33  000E              #line 33 "C:\ChipsGarden\醇法\MK8000\MK8000-Power PCB\UART2CAPTUREwith8bitsMCU\UART2CAPTUREwith8bitsMCU\Sys_Init.C"
  33  000E  3000     R  	set _system_flag[0].0
  34  000F              #line 34 "C:\ChipsGarden\醇法\MK8000\MK8000-Power PCB\UART2CAPTUREwith8bitsMCU\UART2CAPTUREwith8bitsMCU\Sys_Init.C"
  34  000F  3014        	set [20].0
  34  0010  2800     R  	jmp _L1
  34  0011              _L5:
  38  0011              #line 38 "C:\ChipsGarden\醇法\MK8000\MK8000-Power PCB\UART2CAPTUREwith8bitsMCU\UART2CAPTUREwith8bitsMCU\Sys_Init.C"
  38  0011  3400     R  	clr _system_flag[0].0
  39  0012              #line 39 "C:\ChipsGarden\醇法\MK8000\MK8000-Power PCB\UART2CAPTUREwith8bitsMCU\UART2CAPTUREwith8bitsMCU\Sys_Init.C"
  39  0012  3414        	clr [20].0
  39  0013              _L1:
  39  0013  0003        	ret
  39  0014              _Task_500ms endp
  39  0014              #line 39 "C:\ChipsGarden\醇法\MK8000\MK8000-Power PCB\UART2CAPTUREwith8bitsMCU\UART2CAPTUREwith8bitsMCU\Sys_Init.C"
  39  0014              #pragma debug scope 1 1
  39  0014              public _Key_Scan
  39  0014              #pragma debug scope 3 1
  49  0014              #line 49 "C:\ChipsGarden\醇法\MK8000\MK8000-Power PCB\UART2CAPTUREwith8bitsMCU\UART2CAPTUREwith8bitsMCU\Sys_Init.C"
  49  0000              _Key_Scan .section 'code'
  49  0000              _Key_Scan proc
  51  0000              #line 51 "C:\ChipsGarden\醇法\MK8000\MK8000-Power PCB\UART2CAPTUREwith8bitsMCU\UART2CAPTUREwith8bitsMCU\Sys_Init.C"
  51  0000              ;# 51 "C:\ChipsGarden\醇法\MK8000\MK8000-Power PCB\UART2CAPTUREwith8bitsMCU\UART2CAPTUREwith8bitsMCU\Sys_Init.C" 1
  51  0000  0000        	nop
  51  0001  0003        	ret
  51  0002              _Key_Scan endp
  51  0002              #line 51 "C:\ChipsGarden\醇法\MK8000\MK8000-Power PCB\UART2CAPTUREwith8bitsMCU\UART2CAPTUREwith8bitsMCU\Sys_Init.C"
  51  0002              #pragma debug scope 1 1
  51  0002              ___tm0c0 equ [47]
  51  0002              ___tm0c1 equ [48]
  51  0002              ___tm0al equ [51]
  51  0002              ___tm0ah equ [52]
  51  0002              ___tm0rp equ [53]
  51  0002              ___mfi0 equ [17]
  51  0002              ___intc0 equ [14]
"File: Sys_Init.C    Assembler  Version HGASM0202      Page 3

  51  0002              public _TimerInitial
  51  0002              #pragma debug scope 4 1
  61  0002              #line 61 "C:\ChipsGarden\醇法\MK8000\MK8000-Power PCB\UART2CAPTUREwith8bitsMCU\UART2CAPTUREwith8bitsMCU\Sys_Init.C"
  61  0000              _TimerInitial .section 'code'
  61  0000              _TimerInitial proc
  65  0000              #line 65 "C:\ChipsGarden\醇法\MK8000\MK8000-Power PCB\UART2CAPTUREwith8bitsMCU\UART2CAPTUREwith8bitsMCU\Sys_Init.C"
  65  0000  1F2F        	clr [47]
  66  0001              #line 66 "C:\ChipsGarden\醇法\MK8000\MK8000-Power PCB\UART2CAPTUREwith8bitsMCU\UART2CAPTUREwith8bitsMCU\Sys_Init.C"
  66  0001  0FC1        	mov a,193
  66  0002  00B0        	mov [48],a
  67  0003              #line 67 "C:\ChipsGarden\醇法\MK8000\MK8000-Power PCB\UART2CAPTUREwith8bitsMCU\UART2CAPTUREwith8bitsMCU\Sys_Init.C"
  67  0003  0F48        	mov a,72
  67  0004  00B3        	mov [51],a
  68  0005              #line 68 "C:\ChipsGarden\醇法\MK8000\MK8000-Power PCB\UART2CAPTUREwith8bitsMCU\UART2CAPTUREwith8bitsMCU\Sys_Init.C"
  68  0005  0F01        	mov a,1
  68  0006  00B4        	mov [52],a
  69  0007              #line 69 "C:\ChipsGarden\醇法\MK8000\MK8000-Power PCB\UART2CAPTUREwith8bitsMCU\UART2CAPTUREwith8bitsMCU\Sys_Init.C"
  69  0007  1F35        	clr [53]
  70  0008              #line 70 "C:\ChipsGarden\醇法\MK8000\MK8000-Power PCB\UART2CAPTUREwith8bitsMCU\UART2CAPTUREwith8bitsMCU\Sys_Init.C"
  70  0008  3091        	set [17].1
  72  0009              #line 72 "C:\ChipsGarden\醇法\MK8000\MK8000-Power PCB\UART2CAPTUREwith8bitsMCU\UART2CAPTUREwith8bitsMCU\Sys_Init.C"
  72  0009  318E        	set [14].3
  73  000A              #line 73 "C:\ChipsGarden\醇法\MK8000\MK8000-Power PCB\UART2CAPTUREwith8bitsMCU\UART2CAPTUREwith8bitsMCU\Sys_Init.C"
  73  000A  31AF        	set [47].3
  73  000B  0003        	ret
  73  000C              _TimerInitial endp
  73  000C              #line 73 "C:\ChipsGarden\醇法\MK8000\MK8000-Power PCB\UART2CAPTUREwith8bitsMCU\UART2CAPTUREwith8bitsMCU\Sys_Init.C"
  73  000C              #pragma debug scope 1 1
  73  000C              ___tm1c0 equ [54]
  73  000C              public _ReadyToHalt
  73  000C              #pragma debug scope 5 1
 155  000C              #line 155 "C:\ChipsGarden\醇法\MK8000\MK8000-Power PCB\UART2CAPTUREwith8bitsMCU\UART2CAPTUREwith8bitsMCU\Sys_Init.C"
 155  0000              _ReadyToHalt .section 'code'
 155  0000              _ReadyToHalt proc
 163  0000              #line 163 "C:\ChipsGarden\醇法\MK8000\MK8000-Power PCB\UART2CAPTUREwith8bitsMCU\UART2CAPTUREwith8bitsMCU\Sys_Init.C"
 163  0000  2000     E  	call _Uart_off
 164  0001              #line 164 "C:\ChipsGarden\醇法\MK8000\MK8000-Power PCB\UART2CAPTUREwith8bitsMCU\UART2CAPTUREwith8bitsMCU\Sys_Init.C"
 164  0001  35B6        	clr [54].3
 167  0002              #line 167 "C:\ChipsGarden\醇法\MK8000\MK8000-Power PCB\UART2CAPTUREwith8bitsMCU\UART2CAPTUREwith8bitsMCU\Sys_Init.C"
 167  0002              ;# 167 "C:\ChipsGarden\醇法\MK8000\MK8000-Power PCB\UART2CAPTUREwith8bitsMCU\UART2CAPTUREwith8bitsMCU\Sys_Init.C" 1
 167  0002  0002        	halt
 169  0003              #line 169 "C:\ChipsGarden\醇法\MK8000\MK8000-Power PCB\UART2CAPTUREwith8bitsMCU\UART2CAPTUREwith8bitsMCU\Sys_Init.C"
 169  0003  2000     E  	call _Uart_Init
 169  0004  0003        	ret
 169  0005              _ReadyToHalt endp
 169  0005              #line 169 "C:\ChipsGarden\醇法\MK8000\MK8000-Power PCB\UART2CAPTUREwith8bitsMCU\UART2CAPTUREwith8bitsMCU\Sys_Init.C"
 169  0005              #pragma debug scope 1 1
 169  0005              ___pac equ [21]
 169  0005              ___pbc equ [38]
 169  0005              ___pb equ [37]
 169  0005              public _GPIO_Init
 169  0005              #pragma debug scope 6 1
 194  0005              #line 194 "C:\ChipsGarden\醇法\MK8000\MK8000-Power PCB\UART2CAPTUREwith8bitsMCU\UART2CAPTUREwith8bitsMCU\Sys_Init.C"
 194  0000              _GPIO_Init .section 'code'
 194  0000              _GPIO_Init proc
 195  0000              #line 195 "C:\ChipsGarden\醇法\MK8000\MK8000-Power PCB\UART2CAPTUREwith8bitsMCU\UART2CAPTUREwith8bitsMCU\Sys_Init.C"
 195  0000  0FFE        	mov a,254
 195  0001  0095        	mov [21],a
 198  0002              #line 198 "C:\ChipsGarden\醇法\MK8000\MK8000-Power PCB\UART2CAPTUREwith8bitsMCU\UART2CAPTUREwith8bitsMCU\Sys_Init.C"
 198  0002  0FFE        	mov a,254
"File: Sys_Init.C    Assembler  Version HGASM0202      Page 4

 198  0003  0094        	mov [20],a
 200  0004              #line 200 "C:\ChipsGarden\醇法\MK8000\MK8000-Power PCB\UART2CAPTUREwith8bitsMCU\UART2CAPTUREwith8bitsMCU\Sys_Init.C"
 200  0004  0F01        	mov a,1
 200  0005  00A6        	mov [38],a
 202  0006              #line 202 "C:\ChipsGarden\醇法\MK8000\MK8000-Power PCB\UART2CAPTUREwith8bitsMCU\UART2CAPTUREwith8bitsMCU\Sys_Init.C"
 202  0006  0F01        	mov a,1
 202  0007  00A5        	mov [37],a
 202  0008  0003        	ret
 202  0009              _GPIO_Init endp
 202  0009              #line 202 "C:\ChipsGarden\醇法\MK8000\MK8000-Power PCB\UART2CAPTUREwith8bitsMCU\UART2CAPTUREwith8bitsMCU\Sys_Init.C"
 202  0009              #pragma debug scope 1 1
 202  0009              ___tbc equ [27]
 202  0009              ___intc2 equ [16]
 202  0009              public _WDT_ResetInit
 202  0009              #pragma debug scope 7 1
 108  0009              #line 108 "C:\ChipsGarden\醇法\MK8000\MK8000-Power PCB\UART2CAPTUREwith8bitsMCU\UART2CAPTUREwith8bitsMCU\Sys_Init.C"
 108  0000              _WDT_ResetInit .section 'code'
 108  0000              _WDT_ResetInit proc
 109  0000              #line 109 "C:\ChipsGarden\醇法\MK8000\MK8000-Power PCB\UART2CAPTUREwith8bitsMCU\UART2CAPTUREwith8bitsMCU\Sys_Init.C"
 109  0000  2000     R  	call _GPIO_Init
 110  0001              #line 110 "C:\ChipsGarden\醇法\MK8000\MK8000-Power PCB\UART2CAPTUREwith8bitsMCU\UART2CAPTUREwith8bitsMCU\Sys_Init.C"
 110  0001  2000     E  	call _Uart_Init
 114  0002              #line 114 "C:\ChipsGarden\醇法\MK8000\MK8000-Power PCB\UART2CAPTUREwith8bitsMCU\UART2CAPTUREwith8bitsMCU\Sys_Init.C"
 114  0002  0FA6        	mov a,166
 114  0003  009B        	mov [27],a
 114  0004  3010        	set [16].0
 116  0005              #line 116 "C:\ChipsGarden\醇法\MK8000\MK8000-Power PCB\UART2CAPTUREwith8bitsMCU\UART2CAPTUREwith8bitsMCU\Sys_Init.C"
 116  0005  2000     R  	call _TimerInitial
 118  0006              #line 118 "C:\ChipsGarden\醇法\MK8000\MK8000-Power PCB\UART2CAPTUREwith8bitsMCU\UART2CAPTUREwith8bitsMCU\Sys_Init.C"
 118  0006              ;# 118 "C:\ChipsGarden\醇法\MK8000\MK8000-Power PCB\UART2CAPTUREwith8bitsMCU\UART2CAPTUREwith8bitsMCU\Sys_Init.C" 1
 118  0006  0000        	nop
 122  0007              #line 122 "C:\ChipsGarden\醇法\MK8000\MK8000-Power PCB\UART2CAPTUREwith8bitsMCU\UART2CAPTUREwith8bitsMCU\Sys_Init.C"
 122  0007  300E        	set [14].0
 122  0008  0003        	ret
 122  0009              _WDT_ResetInit endp
 122  0009              #line 122 "C:\ChipsGarden\醇法\MK8000\MK8000-Power PCB\UART2CAPTUREwith8bitsMCU\UART2CAPTUREwith8bitsMCU\Sys_Init.C"
 122  0009              #pragma debug scope 1 1
 122  0009              ___bp equ [4]
 122  0009              ___mp1 equ [3]
 122  0009              ___tblp equ [7]
 122  0009              ___iar1 equ [2]
 122  0009              public _Ram_Init
 122  0009              #pragma debug scope 8 1
 222  0009              #line 222 "C:\ChipsGarden\醇法\MK8000\MK8000-Power PCB\UART2CAPTUREwith8bitsMCU\UART2CAPTUREwith8bitsMCU\Sys_Init.C"
 222  0000              _Ram_Init .section 'code'
 222  0000              _Ram_Init proc
 223  0000              #line 223 "C:\ChipsGarden\醇法\MK8000\MK8000-Power PCB\UART2CAPTUREwith8bitsMCU\UART2CAPTUREwith8bitsMCU\Sys_Init.C"
 223  0000  0F01        	mov a,1
 223  0001  0084        	mov [4],a
 224  0002              #line 224 "C:\ChipsGarden\醇法\MK8000\MK8000-Power PCB\UART2CAPTUREwith8bitsMCU\UART2CAPTUREwith8bitsMCU\Sys_Init.C"
 224  0002  0FA0        	mov a,160
 224  0003  0083        	mov [3],a
 225  0004              #line 225 "C:\ChipsGarden\醇法\MK8000\MK8000-Power PCB\UART2CAPTUREwith8bitsMCU\UART2CAPTUREwith8bitsMCU\Sys_Init.C"
 225  0004  1F07        	clr [7]
 225  0005              _L13:
 225  0005              #line 225 "C:\ChipsGarden\醇法\MK8000\MK8000-Power PCB\UART2CAPTUREwith8bitsMCU\UART2CAPTUREwith8bitsMCU\Sys_Init.C"
 225  0005  0F5F        	mov a,95
 225  0006  0207        	sub a,[7]
 225  0007  380A        	snz c
 225  0008  2800     R  	jmp _L17
"File: Sys_Init.C    Assembler  Version HGASM0202      Page 5

 227  0009              #line 227 "C:\ChipsGarden\醇法\MK8000\MK8000-Power PCB\UART2CAPTUREwith8bitsMCU\UART2CAPTUREwith8bitsMCU\Sys_Init.C"
 227  0009  1F02        	clr [2]
 228  000A              #line 228 "C:\ChipsGarden\醇法\MK8000\MK8000-Power PCB\UART2CAPTUREwith8bitsMCU\UART2CAPTUREwith8bitsMCU\Sys_Init.C"
 228  000A  1483        	inc [3]
 225  000B              #line 225 "C:\ChipsGarden\醇法\MK8000\MK8000-Power PCB\UART2CAPTUREwith8bitsMCU\UART2CAPTUREwith8bitsMCU\Sys_Init.C"
 225  000B  1487        	inc [7]
 225  000C  2800     R  	jmp _L13
 225  000D              _L17:
 230  000D              #line 230 "C:\ChipsGarden\醇法\MK8000\MK8000-Power PCB\UART2CAPTUREwith8bitsMCU\UART2CAPTUREwith8bitsMCU\Sys_Init.C"
 230  000D  1F04        	clr [4]
 232  000E              #line 232 "C:\ChipsGarden\醇法\MK8000\MK8000-Power PCB\UART2CAPTUREwith8bitsMCU\UART2CAPTUREwith8bitsMCU\Sys_Init.C"
 232  000E  0FA0        	mov a,160
 232  000F  0083        	mov [3],a
 234  0010              #line 234 "C:\ChipsGarden\醇法\MK8000\MK8000-Power PCB\UART2CAPTUREwith8bitsMCU\UART2CAPTUREwith8bitsMCU\Sys_Init.C"
 234  0010  1F07        	clr [7]
 234  0011  2800     R  	jmp _L15
 234  0012              _L16:
 236  0012              #line 236 "C:\ChipsGarden\醇法\MK8000\MK8000-Power PCB\UART2CAPTUREwith8bitsMCU\UART2CAPTUREwith8bitsMCU\Sys_Init.C"
 236  0012  1F02        	clr [2]
 237  0013              #line 237 "C:\ChipsGarden\醇法\MK8000\MK8000-Power PCB\UART2CAPTUREwith8bitsMCU\UART2CAPTUREwith8bitsMCU\Sys_Init.C"
 237  0013  1483        	inc [3]
 234  0014              #line 234 "C:\ChipsGarden\醇法\MK8000\MK8000-Power PCB\UART2CAPTUREwith8bitsMCU\UART2CAPTUREwith8bitsMCU\Sys_Init.C"
 234  0014  1487        	inc [7]
 234  0015              _L15:
 234  0015  0F5F        	mov a,95
 234  0016  0207        	sub a,[7]
 234  0017  3C0A        	sz c
 234  0018  2800     R  	jmp _L16
 234  0019  0003        	ret
 234  001A              _Ram_Init endp
 234  001A              #line 234 "C:\ChipsGarden\醇法\MK8000\MK8000-Power PCB\UART2CAPTUREwith8bitsMCU\UART2CAPTUREwith8bitsMCU\Sys_Init.C"
 234  001A              #pragma debug scope 1 1
 234  001A              ___acerl equ [67]
 234  001A              ___cpc equ [62]
 234  001A              ___smod equ [11]
 234  001A              ___lvrc equ [29]
 234  001A              ___wdtc equ [26]
 234  001A              public _PowerOn_Init
 234  001A              #pragma debug scope 9 1
 130  001A              #line 130 "C:\ChipsGarden\醇法\MK8000\MK8000-Power PCB\UART2CAPTUREwith8bitsMCU\UART2CAPTUREwith8bitsMCU\Sys_Init.C"
 130  0000              _PowerOn_Init .section 'code'
 130  0000              _PowerOn_Init proc
 132  0000              #line 132 "C:\ChipsGarden\醇法\MK8000\MK8000-Power PCB\UART2CAPTUREwith8bitsMCU\UART2CAPTUREwith8bitsMCU\Sys_Init.C"
 132  0000  0F01        	mov a,1
 132  0001  00C3        	mov [67],a
 133  0002              #line 133 "C:\ChipsGarden\醇法\MK8000\MK8000-Power PCB\UART2CAPTUREwith8bitsMCU\UART2CAPTUREwith8bitsMCU\Sys_Init.C"
 133  0002  1F3E        	clr [62]
 135  0003              #line 135 "C:\ChipsGarden\醇法\MK8000\MK8000-Power PCB\UART2CAPTUREwith8bitsMCU\UART2CAPTUREwith8bitsMCU\Sys_Init.C"
 135  0003  2000     R  	call _Ram_Init
 137  0004              #line 137 "C:\ChipsGarden\醇法\MK8000\MK8000-Power PCB\UART2CAPTUREwith8bitsMCU\UART2CAPTUREwith8bitsMCU\Sys_Init.C"
 137  0004  338B        	set [11].7
 137  0005  330B        	set [11].6
 137  0006  328B        	set [11].5
 137  0007  320B        	set [11].4
 137  0008  308B        	set [11].1
 137  0009  300B        	set [11].0
 141  000A              #line 141 "C:\ChipsGarden\醇法\MK8000\MK8000-Power PCB\UART2CAPTUREwith8bitsMCU\UART2CAPTUREwith8bitsMCU\Sys_Init.C"
 141  000A  0F33        	mov a,51
 141  000B  009D        	mov [29],a
 145  000C              #line 145 "C:\ChipsGarden\醇法\MK8000\MK8000-Power PCB\UART2CAPTUREwith8bitsMCU\UART2CAPTUREwith8bitsMCU\Sys_Init.C"
"File: Sys_Init.C    Assembler  Version HGASM0202      Page 6

 145  000C  0F57        	mov a,87
 145  000D  009A        	mov [26],a
 145  000E  0003        	ret
 145  000F              _PowerOn_Init endp
 145  000F              #line 145 "C:\ChipsGarden\醇法\MK8000\MK8000-Power PCB\UART2CAPTUREwith8bitsMCU\UART2CAPTUREwith8bitsMCU\Sys_Init.C"
 145  000F              #pragma debug scope 1 1
  17  000F              #line 17 "C:\ChipsGarden\醇法\MK8000\MK8000-Power PCB\UART2CAPTUREwith8bitsMCU\UART2CAPTUREwith8bitsMCU\Sys_Init.C"
  17  000F              public _system_flag
  17  0000              @HCCINIT0 .section 'data'
  17  0000              _system_flag	db 0
  17  0001              #pragma debug struct_end
  17  0001              #pragma debug struct_end
  17  0001              #pragma debug union_end
  17  0001              #pragma debug union_end
  17  0001              #pragma debug variable 43 1 _system_flag "system_flag"
  17  0001              
  17  0000              @HCCINIT .section 'data'
  16  0000              #line 16 "C:\ChipsGarden\醇法\MK8000\MK8000-Power PCB\UART2CAPTUREwith8bitsMCU\UART2CAPTUREwith8bitsMCU\Sys_Init.C"
  16  0000              public _count_2sec
  16  0001              @HCCINIT0 .section 'data'
  16  0001              _count_2sec	db 0
  16  0002              #pragma debug variable 8 1 _count_2sec "count_2sec"
  16  0002              
  16  0000              @HCCINIT .section 'data'
  16  0000              #pragma debug variable 8 1 ___mp1 "__mp1" 1
  16  0000              #pragma debug struct_end
  16  0000              #pragma debug struct_end
  16  0000              #pragma debug union_end
  16  0000              #pragma debug union_end
  16  0000              #pragma debug variable 45 1 ___bp "__bp" 1
  16  0000              #pragma debug variable 8 1 ___tblp "__tblp" 1
  16  0000              #pragma debug struct_end
  16  0000              #pragma debug struct_end
  16  0000              #pragma debug union_end
  16  0000              #pragma debug union_end
  16  0000              #pragma debug variable 47 1 ___smod "__smod" 1
  16  0000              #pragma debug struct_end
  16  0000              #pragma debug struct_end
  16  0000              #pragma debug union_end
  16  0000              #pragma debug union_end
  16  0000              #pragma debug variable 49 1 ___intc0 "__intc0" 1
  16  0000              #pragma debug struct_end
  16  0000              #pragma debug struct_end
  16  0000              #pragma debug union_end
  16  0000              #pragma debug union_end
  16  0000              #pragma debug variable 51 1 ___intc2 "__intc2" 1
  16  0000              #pragma debug struct_end
  16  0000              #pragma debug struct_end
  16  0000              #pragma debug union_end
  16  0000              #pragma debug union_end
  16  0000              #pragma debug variable 53 1 ___mfi0 "__mfi0" 1
  16  0000              #pragma debug struct_end
  16  0000              #pragma debug struct_end
  16  0000              #pragma debug union_end
  16  0000              #pragma debug union_end
  16  0000              #pragma debug variable 55 1 ___pa "__pa" 1
  16  0000              #pragma debug struct_end
  16  0000              #pragma debug struct_end
  16  0000              #pragma debug union_end
  16  0000              #pragma debug union_end
"File: Sys_Init.C    Assembler  Version HGASM0202      Page 7

  16  0000              #pragma debug variable 57 1 ___pac "__pac" 1
  16  0000              #pragma debug struct_end
  16  0000              #pragma debug struct_end
  16  0000              #pragma debug union_end
  16  0000              #pragma debug union_end
  16  0000              #pragma debug variable 59 1 ___wdtc "__wdtc" 1
  16  0000              #pragma debug struct_end
  16  0000              #pragma debug struct_end
  16  0000              #pragma debug union_end
  16  0000              #pragma debug union_end
  16  0000              #pragma debug variable 61 1 ___tbc "__tbc" 1
  16  0000              #pragma debug struct_end
  16  0000              #pragma debug struct_end
  16  0000              #pragma debug union_end
  16  0000              #pragma debug union_end
  16  0000              #pragma debug variable 63 1 ___lvrc "__lvrc" 1
  16  0000              #pragma debug struct_end
  16  0000              #pragma debug struct_end
  16  0000              #pragma debug union_end
  16  0000              #pragma debug union_end
  16  0000              #pragma debug variable 65 1 ___pb "__pb" 1
  16  0000              #pragma debug struct_end
  16  0000              #pragma debug struct_end
  16  0000              #pragma debug union_end
  16  0000              #pragma debug union_end
  16  0000              #pragma debug variable 67 1 ___pbc "__pbc" 1
  16  0000              #pragma debug struct_end
  16  0000              #pragma debug struct_end
  16  0000              #pragma debug union_end
  16  0000              #pragma debug union_end
  16  0000              #pragma debug variable 69 1 ___tm0c0 "__tm0c0" 1
  16  0000              #pragma debug struct_end
  16  0000              #pragma debug struct_end
  16  0000              #pragma debug union_end
  16  0000              #pragma debug union_end
  16  0000              #pragma debug variable 71 1 ___tm0c1 "__tm0c1" 1
  16  0000              #pragma debug variable 8 1 ___tm0al "__tm0al" 1
  16  0000              #pragma debug variable 8 1 ___tm0ah "__tm0ah" 1
  16  0000              #pragma debug struct_end
  16  0000              #pragma debug struct_end
  16  0000              #pragma debug union_end
  16  0000              #pragma debug union_end
  16  0000              #pragma debug variable 73 1 ___tm0rp "__tm0rp" 1
  16  0000              #pragma debug struct_end
  16  0000              #pragma debug struct_end
  16  0000              #pragma debug union_end
  16  0000              #pragma debug union_end
  16  0000              #pragma debug variable 75 1 ___tm1c0 "__tm1c0" 1
  16  0000              #pragma debug struct_end
  16  0000              #pragma debug struct_end
  16  0000              #pragma debug union_end
  16  0000              #pragma debug union_end
  16  0000              #pragma debug variable 77 1 ___cpc "__cpc" 1
  16  0000              #pragma debug struct_end
  16  0000              #pragma debug struct_end
  16  0000              #pragma debug union_end
  16  0000              #pragma debug union_end
  16  0000              #pragma debug variable 79 1 ___acerl "__acerl" 1
  16  0000              #pragma debug variable 8 1 ___iar1 "__iar1" 1
  16  0000              
"File: Sys_Init.C    Assembler  Version HGASM0202      Page 8

  16  0000              ; output external variables
  16  0000              extern _interrupt_flag:byte
  16  0000              extern _Uart_off:near
  16  0000              extern _Uart_Init:near
  16  0000              
  16  0000              ; 
  16  0000              ; Generated by holtek-gcc v3.19, Fri Jul 31 11:07:05 2020
  16  0000              ; Rebuild 718
  16  0000              ; end of file


        0 Errors, 0