"File: Uart.c        Assembler  Version HGASM0202      Page 1


   1  0000              ; Generated by holtek-gcc v3.19, Sat Nov 21 20:24:30 2020
   2  0000              ; 
   3  0000              ; Configuration:
   4  0000              ;       without long instruction
   5  0000              ;       Single ROM, Multi-RAM
   6  0000              ;       bits_per_rom_unit:16
   7  0000              ;       with mp1
   8  0000              ;       with tbhp, address(0x9)
   9  0000              ;          Use tabrd-const
  10  0000              ;       
  11  0000              ;       
  12  0000              ;       
  13  0000              ; use 'tabrdc' instead of 'tabrd'
  14  0000              ;       
  15  0000              
  16  0000              #pragma translator "holtek-gcc 4.6.4" "3.19" "build 20130711"
  17  0000              ; Rebuild 718
  18  0000              
  19  0000              ir equ [2]
  20  0000              mp equ [3]
  21  0000              sbp equ [1]
  22  0000              acc equ [5]
  23  0000              bp equ [4]
  24  0000              tblp equ [7]
  25  0000              tbhp equ [9]
  26  0000              status equ [10]
  27  0000              c equ [10].0
  28  0000              ac equ [10].1
  29  0000              z equ [10].2
  30  0000              ov equ [10].3
  31  0000              intc equ [11]
  32  0000              
  33  0000              extern ra:byte
  34  0000              extern rb:byte
  35  0000              extern rc:byte
  36  0000              extern rd:byte
  37  0000              extern re:byte
  38  0000              extern rf:byte
  39  0000              extern rg:byte
  40  0000              extern rh:byte
  41  0000              extern _Crom2Prom:near
  42  0000              extern _Crom2PromNext:near
  43  0000              
  44  0000              RAMBANK 0 @HCCINIT, @HCCINIT0
  45  0000              
  46  0000              RAMBANK 0 @BITDATASEC, @BITDATASEC1
  47  0000              @HCCINIT	.section 'data'
  48  0000              @HCCINIT0	.section 'data'
  49  0000              @BITDATASEC	 .section 'data'
  50  0000              @BITDATASEC1	 .section 'data'
  51  0000              
  52  0000              #pragma debug scope 1 1
  53  0000              	extern __DELAY3:near
  54  0000              	extern __DELAYX3:near
  55  0000              	extern __DELAYX6:near
  56  0000              	extern __DELAYY5:near
  57  0000              	extern __DELAYY3:near
  58  0000              	extern _builtin_holtek_delay_2:byte
  59  0000              ___pcc equ [65]
"File: Uart.ASM      Assembler  Version HGASM0202      Page 2

  60  0000              ___pc equ [64]
  61  0000              ___pcpu equ [66]
  62  0000              ___ucr1 equ [69]
  63  0000              ___ucr2 equ [70]
  64  0000              ___brg equ [71]
  65  0000              ___intc2 equ [16]
  66  0000              public _Uart_Init
  67  0000              #pragma debug scope 2 1

  54  0000              #line 54 "C:\ChipsGarden\醇法\MK8000\MK8000-Power PCB\UART2CAPTUREwith8bitsMCU\UART2CAPTUREwith8bitsMCU\Uart.c"
  54  0000              _Uart_Init .section 'code'
  54  0000              _Uart_Init proc
  55  0000              #line 55 "C:\ChipsGarden\醇法\MK8000\MK8000-Power PCB\UART2CAPTUREwith8bitsMCU\UART2CAPTUREwith8bitsMCU\Uart.c"
  55  0000  3541        	clr [65].2
  56  0001              #line 56 "C:\ChipsGarden\醇法\MK8000\MK8000-Power PCB\UART2CAPTUREwith8bitsMCU\UART2CAPTUREwith8bitsMCU\Uart.c"
  56  0001  3540        	clr [64].2
  58  0002              #line 58 "C:\ChipsGarden\醇法\MK8000\MK8000-Power PCB\UART2CAPTUREwith8bitsMCU\UART2CAPTUREwith8bitsMCU\Uart.c"
  58  0002  35C1        	clr [65].3
  59  0003              #line 59 "C:\ChipsGarden\醇法\MK8000\MK8000-Power PCB\UART2CAPTUREwith8bitsMCU\UART2CAPTUREwith8bitsMCU\Uart.c"
  59  0003  3241        	set [65].4
  60  0004              #line 60 "C:\ChipsGarden\醇法\MK8000\MK8000-Power PCB\UART2CAPTUREwith8bitsMCU\UART2CAPTUREwith8bitsMCU\Uart.c"
  60  0004  31C0        	set [64].3
  61  0005              #line 61 "C:\ChipsGarden\醇法\MK8000\MK8000-Power PCB\UART2CAPTUREwith8bitsMCU\UART2CAPTUREwith8bitsMCU\Uart.c"
  61  0005  3240        	set [64].4
  62  0006              #line 62 "C:\ChipsGarden\醇法\MK8000\MK8000-Power PCB\UART2CAPTUREwith8bitsMCU\UART2CAPTUREwith8bitsMCU\Uart.c"
  62  0006  31C2        	set [66].3
  63  0007              #line 63 "C:\ChipsGarden\醇法\MK8000\MK8000-Power PCB\UART2CAPTUREwith8bitsMCU\UART2CAPTUREwith8bitsMCU\Uart.c"
  63  0007  3242        	set [66].4
  65  0008              #line 65 "C:\ChipsGarden\醇法\MK8000\MK8000-Power PCB\UART2CAPTUREwith8bitsMCU\UART2CAPTUREwith8bitsMCU\Uart.c"
  65  0008  0F80        	mov a,128
  65  0009  00C5        	mov [69],a
  66  000A              #line 66 "C:\ChipsGarden\醇法\MK8000\MK8000-Power PCB\UART2CAPTUREwith8bitsMCU\UART2CAPTUREwith8bitsMCU\Uart.c"
  66  000A  0FE5        	mov a,229
  66  000B  00C6        	mov [70],a
  67  000C              #line 67 "C:\ChipsGarden\醇法\MK8000\MK8000-Power PCB\UART2CAPTUREwith8bitsMCU\UART2CAPTUREwith8bitsMCU\Uart.c"
  67  000C  3146        	set [70].2
  69  000D              #line 69 "C:\ChipsGarden\醇法\MK8000\MK8000-Power PCB\UART2CAPTUREwith8bitsMCU\UART2CAPTUREwith8bitsMCU\Uart.c"
  69  000D  0F33        	mov a,51
  69  000E  00C7        	mov [71],a
  73  000F              #line 73 "C:\ChipsGarden\醇法\MK8000\MK8000-Power PCB\UART2CAPTUREwith8bitsMCU\UART2CAPTUREwith8bitsMCU\Uart.c"
  73  000F  1F00     R  	clr _rx_guide[0]
  74  0010              #line 74 "C:\ChipsGarden\醇法\MK8000\MK8000-Power PCB\UART2CAPTUREwith8bitsMCU\UART2CAPTUREwith8bitsMCU\Uart.c"
  74  0010  1F00     R  	clr _tx_guide[0]
  75  0011              #line 75 "C:\ChipsGarden\醇法\MK8000\MK8000-Power PCB\UART2CAPTUREwith8bitsMCU\UART2CAPTUREwith8bitsMCU\Uart.c"
  75  0011  3190        	set [16].3
  75  0012  0003        	ret
  75  0013              _Uart_Init endp
  75  0013              #line 75 "C:\ChipsGarden\醇法\MK8000\MK8000-Power PCB\UART2CAPTUREwith8bitsMCU\UART2CAPTUREwith8bitsMCU\Uart.c"
  75  0013              #pragma debug scope 1 1
  75  0013              public _Uart_off
  75  0013              #pragma debug scope 3 1
  84  0013              #line 84 "C:\ChipsGarden\醇法\MK8000\MK8000-Power PCB\UART2CAPTUREwith8bitsMCU\UART2CAPTUREwith8bitsMCU\Uart.c"
  84  0000              _Uart_off .section 'code'
  84  0000              _Uart_off proc
  85  0000              #line 85 "C:\ChipsGarden\醇法\MK8000\MK8000-Power PCB\UART2CAPTUREwith8bitsMCU\UART2CAPTUREwith8bitsMCU\Uart.c"
  85  0000  3546        	clr [70].2
  90  0001              #line 90 "C:\ChipsGarden\醇法\MK8000\MK8000-Power PCB\UART2CAPTUREwith8bitsMCU\UART2CAPTUREwith8bitsMCU\Uart.c"
  90  0001  31C0        	set [64].3
  91  0002              #line 91 "C:\ChipsGarden\醇法\MK8000\MK8000-Power PCB\UART2CAPTUREwith8bitsMCU\UART2CAPTUREwith8bitsMCU\Uart.c"
  91  0002  3241        	set [65].4
"File: Uart.c        Assembler  Version HGASM0202      Page 3

  91  0003  0003        	ret
  91  0004              _Uart_off endp
  91  0004              #line 91 "C:\ChipsGarden\醇法\MK8000\MK8000-Power PCB\UART2CAPTUREwith8bitsMCU\UART2CAPTUREwith8bitsMCU\Uart.c"
  91  0004              #pragma debug scope 1 1
  91  0004              ___usr equ [68]
  91  0004              ___txr_rxr equ [72]
  91  0004              public _UART_ISR
  91  0004              #pragma debug scope 4 1
 101  0004              #line 101 "C:\ChipsGarden\醇法\MK8000\MK8000-Power PCB\UART2CAPTUREwith8bitsMCU\UART2CAPTUREwith8bitsMCU\Uart.c"
 101  0000              @UART_ISR_code .section at 44 'code'
 101  0000  0080     E  	mov r1,a
 101  0001  070A        	mov a,status
 101  0002  0080     E  	mov r2,a
 101  0003  2800     R  	jmp _UART_ISR
 101  0004              #pragma debug scope 1 1
 101  0004              @dummy44 endp
 101  0004              #pragma debug scope 5 1
 101  0000              _UART_ISR .section 'code'
 101  0000              _UART_ISR proc
 101  0000  0704        	mov a,bp
 101  0001  0080     E  	mov r3,a
 101  0002  0703        	mov a,mp
 101  0003  0080     E  	mov r4,a
 101  0004  0701        	mov a,sbp
 101  0005  0080     E  	mov r5,a
 101  0006  0707        	mov a,tblp
 101  0007  0080     E  	mov r6,a
 101  0008  0709        	mov a,tbhp
 101  0009  0080     E  	mov r7,a
 103  000A              #line 103 "C:\ChipsGarden\醇法\MK8000\MK8000-Power PCB\UART2CAPTUREwith8bitsMCU\UART2CAPTUREwith8bitsMCU\Uart.c"
 103  000A  3FC4        	sz [68].7
 103  000B  2800     R  	jmp _L4
 103  000C              #line 103 "C:\ChipsGarden\醇法\MK8000\MK8000-Power PCB\UART2CAPTUREwith8bitsMCU\UART2CAPTUREwith8bitsMCU\Uart.c"
 103  000C  3F44        	sz [68].6
 103  000D  2800     R  	jmp _L4
 103  000E  3EC4        	sz [68].5
 103  000F  2800     R  	jmp _L4
 103  0010  3A44        	snz [68].4
 103  0011  2800     R  	jmp _L5
 103  0012              _L4:
 105  0012              #line 105 "C:\ChipsGarden\醇法\MK8000\MK8000-Power PCB\UART2CAPTUREwith8bitsMCU\UART2CAPTUREwith8bitsMCU\Uart.c"
 105  0012  0744        	mov a,[68]
 105  0013  0080     E  	mov ra,a
 106  0014              #line 106 "C:\ChipsGarden\醇法\MK8000\MK8000-Power PCB\UART2CAPTUREwith8bitsMCU\UART2CAPTUREwith8bitsMCU\Uart.c"
 106  0014  0748        	mov a,[72]
 106  0015  0080     E  	mov _isr_temp0[0],a
 107  0016              #line 107 "C:\ChipsGarden\醇法\MK8000\MK8000-Power PCB\UART2CAPTUREwith8bitsMCU\UART2CAPTUREwith8bitsMCU\Uart.c"
 107  0016  1F00     R  	clr _rx_guide[0]
 107  0017  2800     R  	jmp _L3
 107  0018              _L5:
 111  0018              #line 111 "C:\ChipsGarden\醇法\MK8000\MK8000-Power PCB\UART2CAPTUREwith8bitsMCU\UART2CAPTUREwith8bitsMCU\Uart.c"
 111  0018  3944        	snz [68].2
 111  0019  2800     R  	jmp _L7
 113  001A              #line 113 "C:\ChipsGarden\醇法\MK8000\MK8000-Power PCB\UART2CAPTUREwith8bitsMCU\UART2CAPTUREwith8bitsMCU\Uart.c"
 113  001A  0F07        	mov a,7
 113  001B  0200     R  	sub a,_rx_guide[0]
 113  001C  3C0A        	sz c
 113  001D  2800     R  	jmp _L8
 115  001E              #line 115 "C:\ChipsGarden\醇法\MK8000\MK8000-Power PCB\UART2CAPTUREwith8bitsMCU\UART2CAPTUREwith8bitsMCU\Uart.c"
 115  001E  0F08        	mov a,8
"File: Uart.c        Assembler  Version HGASM0202      Page 4

 115  001F  0080     R  	mov _rx_guide[0],a
 115  0020  2800     R  	jmp _L9
 115  0021              _L8:
 119  0021              #line 119 "C:\ChipsGarden\醇法\MK8000\MK8000-Power PCB\UART2CAPTUREwith8bitsMCU\UART2CAPTUREwith8bitsMCU\Uart.c"
 119  0021  0F00     R  	mov a,low offset _array_uart_rxbuff
 119  0022  0300     R  	add a,_rx_guide[0]
 119  0023  0083        	mov mp,a
 119  0024  0F00     R  	mov a,high offset _array_uart_rxbuff
 119  0025  1F01        	clr sbp
 119  0026  1381        	adcm a,sbp
 119  0027  0701        	mov a,sbp
 119  0028  0084        	mov bp,a
 119  0029  0748        	mov a,[72]
 119  002A  0082        	mov ir,a
 120  002B              #line 120 "C:\ChipsGarden\醇法\MK8000\MK8000-Power PCB\UART2CAPTUREwith8bitsMCU\UART2CAPTUREwith8bitsMCU\Uart.c"
 120  002B  1480     R  	inc _rx_guide[0]
 121  002C              #line 121 "C:\ChipsGarden\醇法\MK8000\MK8000-Power PCB\UART2CAPTUREwith8bitsMCU\UART2CAPTUREwith8bitsMCU\Uart.c"
 121  002C  0700     R  	mov a,_rx_guide[0]
 121  002D  0A08        	sub a,8
 121  002E  390A        	snz z
 121  002F  2800     R  	jmp _L9
 121  0030  0F00     R  	mov a,low (offset _array_uart_rxbuff-1)
 121  0031  0300     R  	add a,_rx_guide[0]
 121  0032  0083        	mov mp,a
 121  0033  0F00     R  	mov a,high (offset _array_uart_rxbuff-1)
 121  0034  1F01        	clr sbp
 121  0035  1381        	adcm a,sbp
 121  0036  2000     E  	call _Crom2Prom
 121  0037  0080     E  	mov ra,a
 121  0038  0700     E  	mov a,ra
 121  0039  0A0A        	sub a,10
 121  003A  390A        	snz z
 121  003B  2800     R  	jmp _L9
 123  003C              #line 123 "C:\ChipsGarden\醇法\MK8000\MK8000-Power PCB\UART2CAPTUREwith8bitsMCU\UART2CAPTUREwith8bitsMCU\Uart.c"
 123  003C  3000     R  	set _uart_flag[0].0
 123  003D              _L9:
 131  003D              #line 131 "C:\ChipsGarden\醇法\MK8000\MK8000-Power PCB\UART2CAPTUREwith8bitsMCU\UART2CAPTUREwith8bitsMCU\Uart.c"
 131  003D              ;# 131 "C:\ChipsGarden\醇法\MK8000\MK8000-Power PCB\UART2CAPTUREwith8bitsMCU\UART2CAPTUREwith8bitsMCU\Uart.c" 1
 131  003D  0000        	nop
 131  003E  2800     R  	jmp _L3
 131  003F              _L7:
 135  003F              #line 135 "C:\ChipsGarden\醇法\MK8000\MK8000-Power PCB\UART2CAPTUREwith8bitsMCU\UART2CAPTUREwith8bitsMCU\Uart.c"
 135  003F  3844        	snz [68].0
 135  0040  2800     R  	jmp _L3
 137  0041              #line 137 "C:\ChipsGarden\醇法\MK8000\MK8000-Power PCB\UART2CAPTUREwith8bitsMCU\UART2CAPTUREwith8bitsMCU\Uart.c"
 137  0041  1080     R  	sz _tx_guide[0]
 137  0042  2800     R  	jmp _LI1
 137  0043  2800     R  	jmp _L10
 137  0044              _LI1:
 139  0044              #line 139 "C:\ChipsGarden\醇法\MK8000\MK8000-Power PCB\UART2CAPTUREwith8bitsMCU\UART2CAPTUREwith8bitsMCU\Uart.c"
 139  0044  1580     R  	dec _tx_guide[0]
 140  0045              #line 140 "C:\ChipsGarden\醇法\MK8000\MK8000-Power PCB\UART2CAPTUREwith8bitsMCU\UART2CAPTUREwith8bitsMCU\Uart.c"
 140  0045  1400     R  	inca _tx_index[0]
 140  0046  0080     E  	mov ra,a
 140  0047  0700     E  	mov a,ra
 140  0048  0080     R  	mov _tx_index[0],a
 141  0049              #line 141 "C:\ChipsGarden\醇法\MK8000\MK8000-Power PCB\UART2CAPTUREwith8bitsMCU\UART2CAPTUREwith8bitsMCU\Uart.c"
 141  0049  0F00     R  	mov a,low offset _array_uart_txbuff
 141  004A  0300     E  	add a,ra
 141  004B  0083        	mov mp,a
"File: Uart.c        Assembler  Version HGASM0202      Page 5

 141  004C  0F00     R  	mov a,high offset _array_uart_txbuff
 141  004D  1F01        	clr sbp
 141  004E  1381        	adcm a,sbp
 141  004F  2000     E  	call _Crom2Prom
 141  0050  00C8        	mov [72],a
 141  0051  2800     R  	jmp _L3
 141  0052              _L10:
 145  0052              #line 145 "C:\ChipsGarden\醇法\MK8000\MK8000-Power PCB\UART2CAPTUREwith8bitsMCU\UART2CAPTUREwith8bitsMCU\Uart.c"
 145  0052  0FE5        	mov a,229
 145  0053  00C6        	mov [70],a
 148  0054              #line 148 "C:\ChipsGarden\醇法\MK8000\MK8000-Power PCB\UART2CAPTUREwith8bitsMCU\UART2CAPTUREwith8bitsMCU\Uart.c"
 148  0054  1F00     R  	clr _rx_guide[0]
 149  0055              #line 149 "C:\ChipsGarden\醇法\MK8000\MK8000-Power PCB\UART2CAPTUREwith8bitsMCU\UART2CAPTUREwith8bitsMCU\Uart.c"
 149  0055  3540        	clr [64].2
 149  0056              _L3:
 149  0056  0700     E  	mov a,r2
 149  0057  008A        	mov status,a
 149  0058  0700     E  	mov a,r3
 149  0059  0084        	mov bp,a
 149  005A  0700     E  	mov a,r4
 149  005B  0083        	mov mp,a
 149  005C  0700     E  	mov a,r5
 149  005D  0081        	mov sbp,a
 149  005E  0700     E  	mov a,r6
 149  005F  0087        	mov tblp,a
 149  0060  0700     E  	mov a,r7
 149  0061  0089        	mov tbhp,a
 149  0062  1D05        	tabrdc acc
 149  0063  0700     E  	mov a,r1
 149  0064  0004        	reti
 149  0065              _UART_ISR endp
 149  0065              
 149  0065              #line 149 "C:\ChipsGarden\醇法\MK8000\MK8000-Power PCB\UART2CAPTUREwith8bitsMCU\UART2CAPTUREwith8bitsMCU\Uart.c"
 149  0065              #pragma debug scope 1 1
 149  0065              public _calc_crc
 149  0065              #pragma debug scope 6 1
 330  0065              #line 330 "C:\ChipsGarden\醇法\MK8000\MK8000-Power PCB\UART2CAPTUREwith8bitsMCU\UART2CAPTUREwith8bitsMCU\Uart.c"
 330  0000              _calc_crc .section 'code'
 330  0000              _calc_crc proc
 330  0000              public _calc_crc_2
 330  0000  0003[           local _calc_crc_2 db 3 dup(?)	; 3,0
            00
            ]
 330  0003              #pragma debug pointer 42 8 6
 330  0003              #pragma debug pointer 42 8 6
 330  0003              #pragma debug variable 42 6 _calc_crc_2+0 "pointer"
 330  0003              #pragma debug variable 8 6 _calc_crc_2+2 "length"
 332  0003              #line 332 "C:\ChipsGarden\醇法\MK8000\MK8000-Power PCB\UART2CAPTUREwith8bitsMCU\UART2CAPTUREwith8bitsMCU\Uart.c"
 332  0000  1F80     R  	set _reg_crc[0]
 332  0001  1F80     R  	set _reg_crc[1]
 333  0002              #line 333 "C:\ChipsGarden\醇法\MK8000\MK8000-Power PCB\UART2CAPTUREwith8bitsMCU\UART2CAPTUREwith8bitsMCU\Uart.c"
 333  0002  1F00     E  	clr ra
 333  0003              _L16:
 333  0003              #line 333 "C:\ChipsGarden\醇法\MK8000\MK8000-Power PCB\UART2CAPTUREwith8bitsMCU\UART2CAPTUREwith8bitsMCU\Uart.c"
 333  0003  0700     E  	mov a,ra
 333  0004  0200     R  	sub a,_calc_crc_2[2]
 333  0005  3D0A        	sz z
 333  0006  2800     R  	jmp _L22
 337  0007              #line 337 "C:\ChipsGarden\醇法\MK8000\MK8000-Power PCB\UART2CAPTUREwith8bitsMCU\UART2CAPTUREwith8bitsMCU\Uart.c"
 337  0007  0F01        	mov a,1
"File: Uart.c        Assembler  Version HGASM0202      Page 6

 337  0008  0300     R  	add a,_calc_crc_2[0]
 337  0009  0080     E  	mov rd,a
 337  000A  0F00        	mov a,0
 337  000B  1300     R  	adc a,_calc_crc_2[1]
 337  000C  0080     E  	mov re,a
 337  000D  0700     R  	mov a,_calc_crc_2[0]
 337  000E  0083        	mov mp,a
 337  000F  0700     R  	mov a,_calc_crc_2[1]
 337  0010  0081        	mov sbp,a
 337  0011  2000     E  	call _Crom2Prom
 337  0012  0080     E  	mov rb,a
 337  0013  1F00     E  	clr rc
 337  0014  0700     R  	mov a,_reg_crc[1]
 337  0015  0480     E  	xorm a,rc
 337  0016  0700     R  	mov a,_reg_crc[0]
 337  0017  0480     E  	xorm a,rb
 337  0018  0F08        	mov a,8
 337  0019  0080     E  	mov rf,a
 337  001A              _L20:
 340  001A              #line 340 "C:\ChipsGarden\醇法\MK8000\MK8000-Power PCB\UART2CAPTUREwith8bitsMCU\UART2CAPTUREwith8bitsMCU\Uart.c"
 340  001A  3800     E  	snz rb.0
 340  001B  2800     R  	jmp _L17
 342  001C              #line 342 "C:\ChipsGarden\醇法\MK8000\MK8000-Power PCB\UART2CAPTUREwith8bitsMCU\UART2CAPTUREwith8bitsMCU\Uart.c"
 342  001C  340A        	clr c
 342  001D  1B80     E  	rrc rc
 342  001E  1B80     E  	rrc rb
 343  001F              #line 343 "C:\ChipsGarden\醇法\MK8000\MK8000-Power PCB\UART2CAPTUREwith8bitsMCU\UART2CAPTUREwith8bitsMCU\Uart.c"
 343  001F  0FA0        	mov a,160
 343  0020  0480     E  	xorm a,rc
 343  0021  0F01        	mov a,1
 343  0022  0480     E  	xorm a,rb
 343  0023  2800     R  	jmp _L18
 343  0024              _L17:
 347  0024              #line 347 "C:\ChipsGarden\醇法\MK8000\MK8000-Power PCB\UART2CAPTUREwith8bitsMCU\UART2CAPTUREwith8bitsMCU\Uart.c"
 347  0024  340A        	clr c
 347  0025  1B80     E  	rrc rc
 347  0026  1B80     E  	rrc rb
 347  0027              _L18:
 347  0027  1780     E  	sdz rf
 347  0028  2800     R  	jmp _L20
 347  0029  0700     E  	mov a,rb
 347  002A  0080     R  	mov _reg_crc[0],a
 347  002B  0700     E  	mov a,rc
 347  002C  0080     R  	mov _reg_crc[1],a
 333  002D              #line 333 "C:\ChipsGarden\醇法\MK8000\MK8000-Power PCB\UART2CAPTUREwith8bitsMCU\UART2CAPTUREwith8bitsMCU\Uart.c"
 333  002D  1480     E  	inc ra
 337  002E              #line 337 "C:\ChipsGarden\醇法\MK8000\MK8000-Power PCB\UART2CAPTUREwith8bitsMCU\UART2CAPTUREwith8bitsMCU\Uart.c"
 337  002E  0700     E  	mov a,rd
 337  002F  0080     R  	mov _calc_crc_2[0],a
 337  0030  0700     E  	mov a,re
 337  0031  0080     R  	mov _calc_crc_2[1],a
 337  0032  2800     R  	jmp _L16
 337  0033              _L22:
 353  0033              #line 353 "C:\ChipsGarden\醇法\MK8000\MK8000-Power PCB\UART2CAPTUREwith8bitsMCU\UART2CAPTUREwith8bitsMCU\Uart.c"
 353  0033  0700     R  	mov a,_reg_crc[0]
 353  0034  0080     E  	mov ra,a
 353  0035  0700     R  	mov a,_reg_crc[1]
 353  0036  0080     E  	mov rb,a
 353  0037  0003        	ret
 353  0038              _calc_crc endp
"File: Uart.c        Assembler  Version HGASM0202      Page 7

 353  0038              #line 353 "C:\ChipsGarden\醇法\MK8000\MK8000-Power PCB\UART2CAPTUREwith8bitsMCU\UART2CAPTUREwith8bitsMCU\Uart.c"
 353  0038              #pragma debug scope 1 1
 353  0038              public _Uart_TXD_Send
 353  0038              #pragma debug scope 7 1
 239  0038              #line 239 "C:\ChipsGarden\醇法\MK8000\MK8000-Power PCB\UART2CAPTUREwith8bitsMCU\UART2CAPTUREwith8bitsMCU\Uart.c"
 239  0000              _Uart_TXD_Send .section 'code'
 239  0000              _Uart_TXD_Send proc
 239  0000              public _Uart_TXD_Send_2
 239  0000  0002[           local _Uart_TXD_Send_2 db 2 dup(?)	; 2,0
            00
            ]
 239  0002              #pragma debug variable 12 7 _Uart_TXD_Send_2+0 "tx_data"
 240  0002              #line 240 "C:\ChipsGarden\醇法\MK8000\MK8000-Power PCB\UART2CAPTUREwith8bitsMCU\UART2CAPTUREwith8bitsMCU\Uart.c"
 240  0000  0F09        	mov a,9
 240  0001  0080     R  	mov _tx_guide[0],a
 241  0002              #line 241 "C:\ChipsGarden\醇法\MK8000\MK8000-Power PCB\UART2CAPTUREwith8bitsMCU\UART2CAPTUREwith8bitsMCU\Uart.c"
 241  0002  1F00     R  	clr _tx_index[0]
 242  0003              #line 242 "C:\ChipsGarden\醇法\MK8000\MK8000-Power PCB\UART2CAPTUREwith8bitsMCU\UART2CAPTUREwith8bitsMCU\Uart.c"
 242  0003  3140        	set [64].2
 246  0004              #line 246 "C:\ChipsGarden\醇法\MK8000\MK8000-Power PCB\UART2CAPTUREwith8bitsMCU\UART2CAPTUREwith8bitsMCU\Uart.c"
 246  0004  0F44        	mov a,68
 246  0005  0080     R  	mov _array_uart_txbuff[0],a
 247  0006              #line 247 "C:\ChipsGarden\醇法\MK8000\MK8000-Power PCB\UART2CAPTUREwith8bitsMCU\UART2CAPTUREwith8bitsMCU\Uart.c"
 247  0006  0F01        	mov a,1
 247  0007  0080     R  	mov _array_uart_txbuff[1],a
 248  0008              #line 248 "C:\ChipsGarden\醇法\MK8000\MK8000-Power PCB\UART2CAPTUREwith8bitsMCU\UART2CAPTUREwith8bitsMCU\Uart.c"
 248  0008  0F04        	mov a,4
 248  0009  0080     R  	mov _array_uart_txbuff[2],a
 249  000A              #line 249 "C:\ChipsGarden\醇法\MK8000\MK8000-Power PCB\UART2CAPTUREwith8bitsMCU\UART2CAPTUREwith8bitsMCU\Uart.c"
 249  000A  0700     R  	mov a,_Uart_TXD_Send_2[0]
 249  000B  0080     E  	mov rb,a
 249  000C  0700     R  	mov a,_Uart_TXD_Send_2[1]
 249  000D  0080     E  	mov rc,a
 249  000E  0700     E  	mov a,rc
 249  000F  0080     E  	mov rb,a
 249  0010  1F00     E  	clr rc
 249  0011  0700     E  	mov a,rb
 249  0012  0080     R  	mov _array_uart_txbuff[3],a
 250  0013              #line 250 "C:\ChipsGarden\醇法\MK8000\MK8000-Power PCB\UART2CAPTUREwith8bitsMCU\UART2CAPTUREwith8bitsMCU\Uart.c"
 250  0013  0700     R  	mov a,_Uart_TXD_Send_2[0]
 250  0014  0080     E  	mov ra,a
 250  0015  0700     E  	mov a,ra
 250  0016  0080     R  	mov _array_uart_txbuff[4],a
 251  0017              #line 251 "C:\ChipsGarden\醇法\MK8000\MK8000-Power PCB\UART2CAPTUREwith8bitsMCU\UART2CAPTUREwith8bitsMCU\Uart.c"
 251  0017  0700     E  	mov a,rb
 251  0018  0080     R  	mov _array_uart_txbuff[5],a
 252  0019              #line 252 "C:\ChipsGarden\醇法\MK8000\MK8000-Power PCB\UART2CAPTUREwith8bitsMCU\UART2CAPTUREwith8bitsMCU\Uart.c"
 252  0019  0700     E  	mov a,ra
 252  001A  0080     R  	mov _array_uart_txbuff[6],a
 254  001B              #line 254 "C:\ChipsGarden\醇法\MK8000\MK8000-Power PCB\UART2CAPTUREwith8bitsMCU\UART2CAPTUREwith8bitsMCU\Uart.c"
 254  001B  0F07        	mov a,7
 254  001C  0080     R  	mov _calc_crc_2[2],a
 254  001D  0F00     R  	mov a,low offset _array_uart_txbuff
 254  001E  0080     R  	mov _calc_crc_2[0],a
 254  001F  0F00     R  	mov a,high offset _array_uart_txbuff
 254  0020  0080     R  	mov _calc_crc_2[1],a
 254  0021  2000     R  	call _calc_crc
 256  0022              #line 256 "C:\ChipsGarden\醇法\MK8000\MK8000-Power PCB\UART2CAPTUREwith8bitsMCU\UART2CAPTUREwith8bitsMCU\Uart.c"
 256  0022  0700     R  	mov a,_reg_crc[0]
 256  0023  0080     R  	mov _array_uart_txbuff[7],a
"File: Uart.c        Assembler  Version HGASM0202      Page 8

 257  0024              #line 257 "C:\ChipsGarden\醇法\MK8000\MK8000-Power PCB\UART2CAPTUREwith8bitsMCU\UART2CAPTUREwith8bitsMCU\Uart.c"
 257  0024  0700     R  	mov a,_reg_crc[1]
 257  0025  0080     R  	mov _array_uart_txbuff[8],a
 259  0026              #line 259 "C:\ChipsGarden\醇法\MK8000\MK8000-Power PCB\UART2CAPTUREwith8bitsMCU\UART2CAPTUREwith8bitsMCU\Uart.c"
 259  0026  0700     R  	mov a,_array_uart_txbuff[0]
 259  0027  00C8        	mov [72],a
 260  0028              #line 260 "C:\ChipsGarden\醇法\MK8000\MK8000-Power PCB\UART2CAPTUREwith8bitsMCU\UART2CAPTUREwith8bitsMCU\Uart.c"
 260  0028  1580     R  	dec _tx_guide[0]
 260  0029  0003        	ret
 260  002A              _Uart_TXD_Send endp
 260  002A              #line 260 "C:\ChipsGarden\醇法\MK8000\MK8000-Power PCB\UART2CAPTUREwith8bitsMCU\UART2CAPTUREwith8bitsMCU\Uart.c"
 260  002A              #pragma debug scope 1 1
 260  002A              public _Buffer_Send06
 260  002A              #pragma debug scope 8 1
 268  002A              #line 268 "C:\ChipsGarden\醇法\MK8000\MK8000-Power PCB\UART2CAPTUREwith8bitsMCU\UART2CAPTUREwith8bitsMCU\Uart.c"
 268  0000              _Buffer_Send06 .section 'code'
 268  0000              _Buffer_Send06 proc
 268  0000  00              local _Buffer_Send06_2 db 1 dup(?)	; 0,1
 268  0000  0080     E  	mov ra,a
 268  0001  0080     R  	mov _Buffer_Send06_2[0],a
 268  0002              #pragma debug variable 8 8 _Buffer_Send06_2+0 "count"
 270  0002              #line 270 "C:\ChipsGarden\醇法\MK8000\MK8000-Power PCB\UART2CAPTUREwith8bitsMCU\UART2CAPTUREwith8bitsMCU\Uart.c"
 270  0002  0F0C        	mov a,12
 270  0003  0200     E  	sub a,ra
 270  0004  380A        	snz c
 270  0005  2800     R  	jmp _L24
 275  0006              #line 275 "C:\ChipsGarden\醇法\MK8000\MK8000-Power PCB\UART2CAPTUREwith8bitsMCU\UART2CAPTUREwith8bitsMCU\Uart.c"
 275  0006  0700     E  	mov a,ra
 275  0007  0B04        	add a,4
 275  0008  0080     R  	mov _tx_guide[0],a
 276  0009              #line 276 "C:\ChipsGarden\醇法\MK8000\MK8000-Power PCB\UART2CAPTUREwith8bitsMCU\UART2CAPTUREwith8bitsMCU\Uart.c"
 276  0009  1F00     R  	clr _tx_index[0]
 277  000A              #line 277 "C:\ChipsGarden\醇法\MK8000\MK8000-Power PCB\UART2CAPTUREwith8bitsMCU\UART2CAPTUREwith8bitsMCU\Uart.c"
 277  000A  3140        	set [64].2
 281  000B              #line 281 "C:\ChipsGarden\醇法\MK8000\MK8000-Power PCB\UART2CAPTUREwith8bitsMCU\UART2CAPTUREwith8bitsMCU\Uart.c"
 281  000B  0F44        	mov a,68
 281  000C  0080     R  	mov _array_uart_txbuff[0],a
 282  000D              #line 282 "C:\ChipsGarden\醇法\MK8000\MK8000-Power PCB\UART2CAPTUREwith8bitsMCU\UART2CAPTUREwith8bitsMCU\Uart.c"
 282  000D  0700     R  	mov a,_array_uart_rxbuff[1]
 282  000E  0080     R  	mov _array_uart_txbuff[1],a
 285  000F              #line 285 "C:\ChipsGarden\醇法\MK8000\MK8000-Power PCB\UART2CAPTUREwith8bitsMCU\UART2CAPTUREwith8bitsMCU\Uart.c"
 285  000F  0700     E  	mov a,ra
 285  0010  0B02        	add a,2
 285  0011  0080     R  	mov _calc_crc_2[2],a
 285  0012  0F00     R  	mov a,low offset _array_uart_txbuff
 285  0013  0080     R  	mov _calc_crc_2[0],a
 285  0014  0F00     R  	mov a,high offset _array_uart_txbuff
 285  0015  0080     R  	mov _calc_crc_2[1],a
 285  0016  2000     R  	call _calc_crc
 287  0017              #line 287 "C:\ChipsGarden\醇法\MK8000\MK8000-Power PCB\UART2CAPTUREwith8bitsMCU\UART2CAPTUREwith8bitsMCU\Uart.c"
 287  0017  0700     R  	mov a,_Buffer_Send06_2[0]
 287  0018  0080     E  	mov rb,a
 287  0019  1F00     E  	clr rc
 287  001A  0700     R  	mov a,_reg_crc[1]
 287  001B  0080     E  	mov ra,a
 287  001C  0F00     R  	mov a,low (offset _array_uart_txbuff+2)
 287  001D  0300     E  	add a,rb
 287  001E  0083        	mov mp,a
 287  001F  0F00     R  	mov a,high (offset _array_uart_txbuff+2)
 287  0020  1300     E  	adc a,rc
"File: Uart.c        Assembler  Version HGASM0202      Page 9

 287  0021  0081        	mov sbp,a
 287  0022  0701        	mov a,sbp
 287  0023  0084        	mov bp,a
 287  0024  0700     R  	mov a,_reg_crc[0]
 287  0025  0082        	mov ir,a
 288  0026              #line 288 "C:\ChipsGarden\醇法\MK8000\MK8000-Power PCB\UART2CAPTUREwith8bitsMCU\UART2CAPTUREwith8bitsMCU\Uart.c"
 288  0026  0F00     R  	mov a,low (offset _array_uart_txbuff+3)
 288  0027  0300     E  	add a,rb
 288  0028  0083        	mov mp,a
 288  0029  0F00     R  	mov a,high (offset _array_uart_txbuff+3)
 288  002A  1300     E  	adc a,rc
 288  002B  0081        	mov sbp,a
 288  002C  0701        	mov a,sbp
 288  002D  0084        	mov bp,a
 288  002E  0700     E  	mov a,ra
 288  002F  0082        	mov ir,a
 290  0030              #line 290 "C:\ChipsGarden\醇法\MK8000\MK8000-Power PCB\UART2CAPTUREwith8bitsMCU\UART2CAPTUREwith8bitsMCU\Uart.c"
 290  0030  0700     R  	mov a,_array_uart_txbuff[0]
 290  0031  00C8        	mov [72],a
 291  0032              #line 291 "C:\ChipsGarden\醇法\MK8000\MK8000-Power PCB\UART2CAPTUREwith8bitsMCU\UART2CAPTUREwith8bitsMCU\Uart.c"
 291  0032  1580     R  	dec _tx_guide[0]
 291  0033              _L24:
 291  0033  0003        	ret
 291  0034              _Buffer_Send06 endp
 291  0034              #line 291 "C:\ChipsGarden\醇法\MK8000\MK8000-Power PCB\UART2CAPTUREwith8bitsMCU\UART2CAPTUREwith8bitsMCU\Uart.c"
 291  0034              #pragma debug scope 1 1
 291  0034              public _Buffer_Send03
 291  0034              #pragma debug scope 9 1
 299  0034              #line 299 "C:\ChipsGarden\醇法\MK8000\MK8000-Power PCB\UART2CAPTUREwith8bitsMCU\UART2CAPTUREwith8bitsMCU\Uart.c"
 299  0000              _Buffer_Send03 .section 'code'
 299  0000              _Buffer_Send03 proc
 299  0000  00              local _Buffer_Send03_2 db 1 dup(?)	; 0,1
 299  0000  0080     E  	mov ra,a
 299  0001  0080     R  	mov _Buffer_Send03_2[0],a
 299  0002              #pragma debug variable 8 9 _Buffer_Send03_2+0 "count"
 301  0002              #line 301 "C:\ChipsGarden\醇法\MK8000\MK8000-Power PCB\UART2CAPTUREwith8bitsMCU\UART2CAPTUREwith8bitsMCU\Uart.c"
 301  0002  0F0B        	mov a,11
 301  0003  0200     E  	sub a,ra
 301  0004  380A        	snz c
 301  0005  2800     R  	jmp _L26
 301  0006              #pragma debug scope 10 9
 301  0006              ;begin block, line: 301.-1
 301  0006              #pragma debug scope 11 10
 301  0006              ;begin block, line: 301.-1
 306  0006              #line 306 "C:\ChipsGarden\醇法\MK8000\MK8000-Power PCB\UART2CAPTUREwith8bitsMCU\UART2CAPTUREwith8bitsMCU\Uart.c"
 306  0006  0700     E  	mov a,ra
 306  0007  0B05        	add a,5
 306  0008  0080     R  	mov _tx_guide[0],a
 307  0009              #line 307 "C:\ChipsGarden\醇法\MK8000\MK8000-Power PCB\UART2CAPTUREwith8bitsMCU\UART2CAPTUREwith8bitsMCU\Uart.c"
 307  0009  1F00     R  	clr _tx_index[0]
 308  000A              #line 308 "C:\ChipsGarden\醇法\MK8000\MK8000-Power PCB\UART2CAPTUREwith8bitsMCU\UART2CAPTUREwith8bitsMCU\Uart.c"
 308  000A  3140        	set [64].2
 312  000B              #line 312 "C:\ChipsGarden\醇法\MK8000\MK8000-Power PCB\UART2CAPTUREwith8bitsMCU\UART2CAPTUREwith8bitsMCU\Uart.c"
 312  000B  0F44        	mov a,68
 312  000C  0080     R  	mov _array_uart_txbuff[0],a
 313  000D              #line 313 "C:\ChipsGarden\醇法\MK8000\MK8000-Power PCB\UART2CAPTUREwith8bitsMCU\UART2CAPTUREwith8bitsMCU\Uart.c"
 313  000D  0700     R  	mov a,_array_uart_rxbuff[1]
 313  000E  0080     R  	mov _array_uart_txbuff[1],a
 314  000F              #line 314 "C:\ChipsGarden\醇法\MK8000\MK8000-Power PCB\UART2CAPTUREwith8bitsMCU\UART2CAPTUREwith8bitsMCU\Uart.c"
 314  000F  0700     R  	mov a,_Buffer_Send03_2[0]
"File: Uart.c        Assembler  Version HGASM0202      Page 10

 314  0010  0080     R  	mov _array_uart_txbuff[2],a
 316  0011              #line 316 "C:\ChipsGarden\醇法\MK8000\MK8000-Power PCB\UART2CAPTUREwith8bitsMCU\UART2CAPTUREwith8bitsMCU\Uart.c"
 316  0011  0700     E  	mov a,ra
 316  0012  0B03        	add a,3
 316  0013  0080     R  	mov _calc_crc_2[2],a
 316  0014  0F00     R  	mov a,low offset _array_uart_txbuff
 316  0015  0080     R  	mov _calc_crc_2[0],a
 316  0016  0F00     R  	mov a,high offset _array_uart_txbuff
 316  0017  0080     R  	mov _calc_crc_2[1],a
 316  0018  2000     R  	call _calc_crc
 318  0019              #line 318 "C:\ChipsGarden\醇法\MK8000\MK8000-Power PCB\UART2CAPTUREwith8bitsMCU\UART2CAPTUREwith8bitsMCU\Uart.c"
 318  0019  0700     R  	mov a,_Buffer_Send03_2[0]
 318  001A  0080     E  	mov rb,a
 318  001B  1F00     E  	clr rc
 318  001C  0700     R  	mov a,_reg_crc[1]
 318  001D  0080     E  	mov ra,a
 318  001E  0F00     R  	mov a,low (offset _array_uart_txbuff+3)
 318  001F  0300     E  	add a,rb
 318  0020  0083        	mov mp,a
 318  0021  0F00     R  	mov a,high (offset _array_uart_txbuff+3)
 318  0022  1300     E  	adc a,rc
 318  0023  0081        	mov sbp,a
 318  0024  0701        	mov a,sbp
 318  0025  0084        	mov bp,a
 318  0026  0700     R  	mov a,_reg_crc[0]
 318  0027  0082        	mov ir,a
 319  0028              #line 319 "C:\ChipsGarden\醇法\MK8000\MK8000-Power PCB\UART2CAPTUREwith8bitsMCU\UART2CAPTUREwith8bitsMCU\Uart.c"
 319  0028  0F00     R  	mov a,low (offset _array_uart_txbuff+4)
 319  0029  0300     E  	add a,rb
 319  002A  0083        	mov mp,a
 319  002B  0F00     R  	mov a,high (offset _array_uart_txbuff+4)
 319  002C  1300     E  	adc a,rc
 319  002D  0081        	mov sbp,a
 319  002E  0701        	mov a,sbp
 319  002F  0084        	mov bp,a
 319  0030  0700     E  	mov a,ra
 319  0031  0082        	mov ir,a
 321  0032              #line 321 "C:\ChipsGarden\醇法\MK8000\MK8000-Power PCB\UART2CAPTUREwith8bitsMCU\UART2CAPTUREwith8bitsMCU\Uart.c"
 321  0032  0700     R  	mov a,_array_uart_txbuff[0]
 321  0033  00C8        	mov [72],a
 322  0034              #line 322 "C:\ChipsGarden\醇法\MK8000\MK8000-Power PCB\UART2CAPTUREwith8bitsMCU\UART2CAPTUREwith8bitsMCU\Uart.c"
 322  0034  1580     R  	dec _tx_guide[0]
 322  0035              _L26:
 322  0035              #pragma debug scope 10 9
 322  0035              #pragma debug scope 9 1
 322  0035  0003        	ret
 322  0036              _Buffer_Send03 endp
 322  0036              #line 322 "C:\ChipsGarden\醇法\MK8000\MK8000-Power PCB\UART2CAPTUREwith8bitsMCU\UART2CAPTUREwith8bitsMCU\Uart.c"
 322  0036              #pragma debug scope 1 1
 322  0036              public _Uart_RXD_Manage
 322  0036              #pragma debug scope 12 1
 163  0036              #line 163 "C:\ChipsGarden\醇法\MK8000\MK8000-Power PCB\UART2CAPTUREwith8bitsMCU\UART2CAPTUREwith8bitsMCU\Uart.c"
 163  0000              _Uart_RXD_Manage .section 'code'
 163  0000              _Uart_RXD_Manage proc
 163  0000  0005[           local _Uart_RXD_Manage_2 db 5 dup(?)	; 0,5
            00
            ]
 163  0005              #pragma debug variable 8 12 _Uart_RXD_Manage_2+0 "i"
 165  0005              #line 165 "C:\ChipsGarden\醇法\MK8000\MK8000-Power PCB\UART2CAPTUREwith8bitsMCU\UART2CAPTUREwith8bitsMCU\Uart.c"
 165  0000  3800     R  	snz _uart_flag[0].0
"File: Uart.c        Assembler  Version HGASM0202      Page 11

 165  0001  2800     R  	jmp _L29
 167  0002              #line 167 "C:\ChipsGarden\醇法\MK8000\MK8000-Power PCB\UART2CAPTUREwith8bitsMCU\UART2CAPTUREwith8bitsMCU\Uart.c"
 167  0002  3400     R  	clr _uart_flag[0].0
 168  0003              #line 168 "C:\ChipsGarden\醇法\MK8000\MK8000-Power PCB\UART2CAPTUREwith8bitsMCU\UART2CAPTUREwith8bitsMCU\Uart.c"
 168  0003  0700     R  	mov a,_array_uart_rxbuff[0]
 168  0004  0A44        	sub a,68
 168  0005  390A        	snz z
 168  0006  2800     R  	jmp _L38
 168  0007  0700     R  	mov a,_array_uart_rxbuff[7]
 168  0008  0A0A        	sub a,10
 168  0009  390A        	snz z
 168  000A  2800     R  	jmp _L38
 170  000B              #line 170 "C:\ChipsGarden\醇法\MK8000\MK8000-Power PCB\UART2CAPTUREwith8bitsMCU\UART2CAPTUREwith8bitsMCU\Uart.c"
 170  000B  0700     R  	mov a,_array_uart_rxbuff[1]
 170  000C  0080     R  	mov _Uart_RXD_Manage_2[0],a
 170  000D  0700     R  	mov a,_Uart_RXD_Manage_2[0]
 170  000E  0A03        	sub a,3
 170  000F  3D0A        	sz z
 170  0010  2800     R  	jmp _L31
 170  0011  0700     R  	mov a,_Uart_RXD_Manage_2[0]
 170  0012  0A06        	sub a,6
 170  0013  390A        	snz z
 170  0014  2800     R  	jmp _L38
 208  0015              #line 208 "C:\ChipsGarden\醇法\MK8000\MK8000-Power PCB\UART2CAPTUREwith8bitsMCU\UART2CAPTUREwith8bitsMCU\Uart.c"
 208  0015  0700     R  	mov a,_array_uart_rxbuff[3]
 208  0016  0080     E  	mov ra,a
 208  0017  0700     R  	mov a,_array_uart_rxbuff[4]
 208  0018  0080     E  	mov _Write_EEPROM_2[0],a
 208  0019  0700     E  	mov a,ra
 208  001A  2000     E  	call _Write_EEPROM
 209  001B              #line 209 "C:\ChipsGarden\醇法\MK8000\MK8000-Power PCB\UART2CAPTUREwith8bitsMCU\UART2CAPTUREwith8bitsMCU\Uart.c"
 209  001B  1400     R  	inca _array_uart_rxbuff[3]
 209  001C  0080     E  	mov ra,a
 209  001D  0700     R  	mov a,_array_uart_rxbuff[5]
 209  001E  0080     E  	mov _Write_EEPROM_2[0],a
 209  001F  0700     E  	mov a,ra
 209  0020  2000     E  	call _Write_EEPROM
 212  0021              #line 212 "C:\ChipsGarden\醇法\MK8000\MK8000-Power PCB\UART2CAPTUREwith8bitsMCU\UART2CAPTUREwith8bitsMCU\Uart.c"
 212  0021  0700     R  	mov a,_array_uart_rxbuff[2]
 212  0022  0080     R  	mov _array_uart_txbuff[2],a
 212  0023  0700     R  	mov a,_array_uart_rxbuff[3]
 212  0024  0080     R  	mov _array_uart_txbuff[3],a
 212  0025  0700     R  	mov a,_array_uart_rxbuff[4]
 212  0026  0080     R  	mov _array_uart_txbuff[4],a
 212  0027  0700     R  	mov a,_array_uart_rxbuff[5]
 212  0028  0080     R  	mov _array_uart_txbuff[5],a
 214  0029              #line 214 "C:\ChipsGarden\醇法\MK8000\MK8000-Power PCB\UART2CAPTUREwith8bitsMCU\UART2CAPTUREwith8bitsMCU\Uart.c"
 214  0029  0F04        	mov a,4
 214  002A  2000     R  	call _Buffer_Send06
 215  002B              #line 215 "C:\ChipsGarden\醇法\MK8000\MK8000-Power PCB\UART2CAPTUREwith8bitsMCU\UART2CAPTUREwith8bitsMCU\Uart.c"
 215  002B  2800     R  	jmp _L38
 215  002C              _L31:
 185  002C              #line 185 "C:\ChipsGarden\醇法\MK8000\MK8000-Power PCB\UART2CAPTUREwith8bitsMCU\UART2CAPTUREwith8bitsMCU\Uart.c"
 185  002C  0700     R  	mov a,_array_uart_rxbuff[2]
 185  002D  0A03        	sub a,3
 185  002E  3D0A        	sz z
 185  002F  2800     R  	jmp _L33
 185  0030  1F00     R  	clr _Uart_RXD_Manage_2[0]
 185  0031  2800     R  	jmp _L34
 185  0032              _L33:
"File: Uart.c        Assembler  Version HGASM0202      Page 12

 188  0032              #line 188 "C:\ChipsGarden\醇法\MK8000\MK8000-Power PCB\UART2CAPTUREwith8bitsMCU\UART2CAPTUREwith8bitsMCU\Uart.c"
 188  0032  0700     E  	mov a,_capture_val[3]
 188  0033  0080     R  	mov _array_uart_txbuff[4],a
 189  0034              #line 189 "C:\ChipsGarden\醇法\MK8000\MK8000-Power PCB\UART2CAPTUREwith8bitsMCU\UART2CAPTUREwith8bitsMCU\Uart.c"
 189  0034  0700     E  	mov a,_capture_val[2]
 189  0035  0080     R  	mov _array_uart_txbuff[5],a
 190  0036              #line 190 "C:\ChipsGarden\醇法\MK8000\MK8000-Power PCB\UART2CAPTUREwith8bitsMCU\UART2CAPTUREwith8bitsMCU\Uart.c"
 190  0036  0700     E  	mov a,_capture_val[1]
 190  0037  0080     R  	mov _array_uart_txbuff[6],a
 191  0038              #line 191 "C:\ChipsGarden\醇法\MK8000\MK8000-Power PCB\UART2CAPTUREwith8bitsMCU\UART2CAPTUREwith8bitsMCU\Uart.c"
 191  0038  0700     E  	mov a,_capture_val[0]
 191  0039  0080     R  	mov _array_uart_txbuff[7],a
 192  003A              #line 192 "C:\ChipsGarden\醇法\MK8000\MK8000-Power PCB\UART2CAPTUREwith8bitsMCU\UART2CAPTUREwith8bitsMCU\Uart.c"
 192  003A  0F04        	mov a,4
 192  003B  2800     R  	jmp _L37
 192  003C              _L34:
 197  003C              #line 197 "C:\ChipsGarden\醇法\MK8000\MK8000-Power PCB\UART2CAPTUREwith8bitsMCU\UART2CAPTUREwith8bitsMCU\Uart.c"
 197  003C  0700     R  	mov a,_Uart_RXD_Manage_2[0]
 197  003D  0080     R  	mov _Uart_RXD_Manage_2[1],a
 197  003E  1F00     R  	clr _Uart_RXD_Manage_2[2]
 197  003F  0700     R  	mov a,_array_uart_rxbuff[5]
 197  0040  0080     E  	mov rb,a
 197  0041  1F00     E  	clr rc
 197  0042  340A        	clr c
 197  0043  1A80     E  	rlc rb
 197  0044  1A80     E  	rlc rc
 197  0045  0700     R  	mov a,_Uart_RXD_Manage_2[1]
 197  0046  0200     E  	sub a,rb
 197  0047  0700     R  	mov a,_Uart_RXD_Manage_2[2]
 197  0048  1200     E  	sbc a,rc
 197  0049  1185        	swap acc
 197  004A  040A        	xor a,status
 197  004B  3985        	snz acc.3
 197  004C  2800     R  	jmp _L39
 199  004D              #line 199 "C:\ChipsGarden\醇法\MK8000\MK8000-Power PCB\UART2CAPTUREwith8bitsMCU\UART2CAPTUREwith8bitsMCU\Uart.c"
 199  004D  0F03        	mov a,3
 199  004E  0300     R  	add a,_Uart_RXD_Manage_2[1]
 199  004F  0080     R  	mov _Uart_RXD_Manage_2[3],a
 199  0050  0F00        	mov a,0
 199  0051  1300     R  	adc a,_Uart_RXD_Manage_2[2]
 199  0052  0080     R  	mov _Uart_RXD_Manage_2[4],a
 199  0053  0700     R  	mov a,_Uart_RXD_Manage_2[0]
 199  0054  0300     R  	add a,_array_uart_rxbuff[3]
 199  0055  0080     E  	mov ra,a
 199  0056  0700     E  	mov a,ra
 199  0057  2000     E  	call _Read_EEPROM
 199  0058  0080     E  	mov ra,a
 199  0059  0F00     R  	mov a,low offset _array_uart_txbuff
 199  005A  0300     R  	add a,_Uart_RXD_Manage_2[3]
 199  005B  0083        	mov mp,a
 199  005C  0F00     R  	mov a,high offset _array_uart_txbuff
 199  005D  1300     R  	adc a,_Uart_RXD_Manage_2[4]
 199  005E  0081        	mov sbp,a
 199  005F  0701        	mov a,sbp
 199  0060  0084        	mov bp,a
 199  0061  0700     E  	mov a,ra
 199  0062  0082        	mov ir,a
 200  0063              #line 200 "C:\ChipsGarden\醇法\MK8000\MK8000-Power PCB\UART2CAPTUREwith8bitsMCU\UART2CAPTUREwith8bitsMCU\Uart.c"
 200  0063  0F04        	mov a,4
 200  0064  0380     R  	addm a,_Uart_RXD_Manage_2[1]
"File: Uart.c        Assembler  Version HGASM0202      Page 13

 200  0065  0F00        	mov a,0
 200  0066  1380     R  	adcm a,_Uart_RXD_Manage_2[2]
 200  0067  0700     R  	mov a,_Uart_RXD_Manage_2[0]
 200  0068  0300     R  	add a,_array_uart_rxbuff[3]
 200  0069  0080     E  	mov ra,a
 200  006A  1480     E  	inc ra
 200  006B  0700     E  	mov a,ra
 200  006C  2000     E  	call _Read_EEPROM
 200  006D  0080     E  	mov ra,a
 200  006E  0F00     R  	mov a,low offset _array_uart_txbuff
 200  006F  0300     R  	add a,_Uart_RXD_Manage_2[1]
 200  0070  0083        	mov mp,a
 200  0071  0F00     R  	mov a,high offset _array_uart_txbuff
 200  0072  1300     R  	adc a,_Uart_RXD_Manage_2[2]
 200  0073  0081        	mov sbp,a
 200  0074  0701        	mov a,sbp
 200  0075  0084        	mov bp,a
 200  0076  0700     E  	mov a,ra
 200  0077  0082        	mov ir,a
 197  0078              #line 197 "C:\ChipsGarden\醇法\MK8000\MK8000-Power PCB\UART2CAPTUREwith8bitsMCU\UART2CAPTUREwith8bitsMCU\Uart.c"
 197  0078  0F02        	mov a,2
 197  0079  0380     R  	addm a,_Uart_RXD_Manage_2[0]
 197  007A  2800     R  	jmp _L34
 197  007B              _L39:
 203  007B              #line 203 "C:\ChipsGarden\醇法\MK8000\MK8000-Power PCB\UART2CAPTUREwith8bitsMCU\UART2CAPTUREwith8bitsMCU\Uart.c"
 203  007B  0700     R  	mov a,_array_uart_rxbuff[5]
 203  007C  0300     R  	add a,_array_uart_rxbuff[5]
 203  007D  0080     E  	mov ra,a
 203  007E  0700     E  	mov a,ra
 203  007F              _L37:
 203  007F  2000     R  	call _Buffer_Send03
 203  0080  2800     R  	jmp _L38
 203  0081              _L29:
 225  0081              #line 225 "C:\ChipsGarden\醇法\MK8000\MK8000-Power PCB\UART2CAPTUREwith8bitsMCU\UART2CAPTUREwith8bitsMCU\Uart.c"
 225  0081  0F96        	mov a,150
 225  0082  0200     R  	sub a,_rx_watchdog[0]
 225  0083  3C0A        	sz c
 225  0084  2800     R  	jmp _L28
 227  0085              #line 227 "C:\ChipsGarden\醇法\MK8000\MK8000-Power PCB\UART2CAPTUREwith8bitsMCU\UART2CAPTUREwith8bitsMCU\Uart.c"
 227  0085  1F00     R  	clr _rx_watchdog[0]
 227  0086              _L38:
 228  0086              #line 228 "C:\ChipsGarden\醇法\MK8000\MK8000-Power PCB\UART2CAPTUREwith8bitsMCU\UART2CAPTUREwith8bitsMCU\Uart.c"
 228  0086  1F00     R  	clr _rx_guide[0]
 228  0087              _L28:
 228  0087  0003        	ret
 228  0088              _Uart_RXD_Manage endp
 228  0088              #line 228 "C:\ChipsGarden\醇法\MK8000\MK8000-Power PCB\UART2CAPTUREwith8bitsMCU\UART2CAPTUREwith8bitsMCU\Uart.c"
 228  0088              #pragma debug scope 1 1
  44  0088              #line 44 "C:\ChipsGarden\醇法\MK8000\MK8000-Power PCB\UART2CAPTUREwith8bitsMCU\UART2CAPTUREwith8bitsMCU\Uart.c"
  44  0088              public _reg_crc
  44  0000              @HCCINIT0 .section 'data'
  44  0000  0002[       _reg_crc	db 2 dup(0)
            00
            ]
  44  0002              #pragma debug struct_end
  44  0002              #pragma debug struct_end
  44  0002              #pragma debug struct_end
  44  0002              #pragma debug struct_end
  44  0002              #pragma debug union_end
  44  0002              #pragma debug union_end
"File: Uart.c        Assembler  Version HGASM0202      Page 14

  44  0002              #pragma debug variable 45 1 _reg_crc "reg_crc"
  44  0002              
  44  0000              @HCCINIT .section 'data'
  42  0000              #line 42 "C:\ChipsGarden\醇法\MK8000\MK8000-Power PCB\UART2CAPTUREwith8bitsMCU\UART2CAPTUREwith8bitsMCU\Uart.c"
  42  0000              public _uart_flag
  42  0002              @HCCINIT0 .section 'data'
  42  0002              _uart_flag	db 0
  42  0003              #pragma debug struct_end
  42  0003              #pragma debug struct_end
  42  0003              #pragma debug union_end
  42  0003              #pragma debug union_end
  42  0003              #pragma debug variable 47 1 _uart_flag "uart_flag"
  42  0003              
  42  0000              @HCCINIT .section 'data'
  41  0000              #line 41 "C:\ChipsGarden\醇法\MK8000\MK8000-Power PCB\UART2CAPTUREwith8bitsMCU\UART2CAPTUREwith8bitsMCU\Uart.c"
  41  0000              public _array_uart_rxbuff
  41  0003              @HCCINIT0 .section 'data'
  41  0003  0008[       _array_uart_rxbuff	db 8 dup(0)
            00
            ]
  41  000B              #pragma debug array 48 8 8 1
  41  000B              #pragma debug array 48 8 8 1
  41  000B              #pragma debug variable 48 1 _array_uart_rxbuff "array_uart_rxbuff"
  41  000B              
  41  0000              @HCCINIT .section 'data'
  40  0000              #line 40 "C:\ChipsGarden\醇法\MK8000\MK8000-Power PCB\UART2CAPTUREwith8bitsMCU\UART2CAPTUREwith8bitsMCU\Uart.c"
  40  0000              public _array_uart_txbuff
  40  000B              @HCCINIT0 .section 'data'
  40  000B  0010[       _array_uart_txbuff	db 16 dup(0)
            00
            ]
  40  001B              #pragma debug array 49 8 16 1
  40  001B              #pragma debug array 49 8 16 1
  40  001B              #pragma debug variable 49 1 _array_uart_txbuff "array_uart_txbuff"
  40  001B              
  40  0000              @HCCINIT .section 'data'
  39  0000              #line 39 "C:\ChipsGarden\醇法\MK8000\MK8000-Power PCB\UART2CAPTUREwith8bitsMCU\UART2CAPTUREwith8bitsMCU\Uart.c"
  39  0000              public _tx_guide
  39  001B              @HCCINIT0 .section 'data'
  39  001B              _tx_guide	db 0
  39  001C              #pragma debug variable 8 1 _tx_guide "tx_guide"
  39  001C              
  39  0000              @HCCINIT .section 'data'
  38  0000              #line 38 "C:\ChipsGarden\醇法\MK8000\MK8000-Power PCB\UART2CAPTUREwith8bitsMCU\UART2CAPTUREwith8bitsMCU\Uart.c"
  38  0000              public _rx_guide
  38  001C              @HCCINIT0 .section 'data'
  38  001C              _rx_guide	db 0
  38  001D              #pragma debug variable 8 1 _rx_guide "rx_guide"
  38  001D              
  38  0000              @HCCINIT .section 'data'
  37  0000              #line 37 "C:\ChipsGarden\醇法\MK8000\MK8000-Power PCB\UART2CAPTUREwith8bitsMCU\UART2CAPTUREwith8bitsMCU\Uart.c"
  37  0000              public _tx_index
  37  001D              @HCCINIT0 .section 'data'
  37  001D              _tx_index	db 0
  37  001E              #pragma debug variable 8 1 _tx_index "tx_index"
  37  001E              
  37  0000              @HCCINIT .section 'data'
  36  0000              #line 36 "C:\ChipsGarden\醇法\MK8000\MK8000-Power PCB\UART2CAPTUREwith8bitsMCU\UART2CAPTUREwith8bitsMCU\Uart.c"
  36  0000              public _rx_watchdog
  36  001E              @HCCINIT0 .section 'data'
"File: Uart.c        Assembler  Version HGASM0202      Page 15

  36  001E              _rx_watchdog	db 0
  36  001F              #pragma debug variable 8 1 _rx_watchdog "rx_watchdog"
  36  001F              
  36  0000              @HCCINIT .section 'data'
  36  0000              #pragma debug struct_end
  36  0000              #pragma debug struct_end
  36  0000              #pragma debug union_end
  36  0000              #pragma debug union_end
  36  0000              #pragma debug variable 51 1 ___intc2 "__intc2" 1
  36  0000              #pragma debug struct_end
  36  0000              #pragma debug struct_end
  36  0000              #pragma debug union_end
  36  0000              #pragma debug union_end
  36  0000              #pragma debug variable 53 1 ___pc "__pc" 1
  36  0000              #pragma debug struct_end
  36  0000              #pragma debug struct_end
  36  0000              #pragma debug union_end
  36  0000              #pragma debug union_end
  36  0000              #pragma debug variable 55 1 ___pcc "__pcc" 1
  36  0000              #pragma debug struct_end
  36  0000              #pragma debug struct_end
  36  0000              #pragma debug union_end
  36  0000              #pragma debug union_end
  36  0000              #pragma debug variable 57 1 ___pcpu "__pcpu" 1
  36  0000              #pragma debug struct_end
  36  0000              #pragma debug struct_end
  36  0000              #pragma debug union_end
  36  0000              #pragma debug union_end
  36  0000              #pragma debug variable 59 1 ___usr "__usr" 1
  36  0000              #pragma debug struct_end
  36  0000              #pragma debug struct_end
  36  0000              #pragma debug union_end
  36  0000              #pragma debug union_end
  36  0000              #pragma debug variable 61 1 ___ucr1 "__ucr1" 1
  36  0000              #pragma debug struct_end
  36  0000              #pragma debug struct_end
  36  0000              #pragma debug union_end
  36  0000              #pragma debug union_end
  36  0000              #pragma debug variable 63 1 ___ucr2 "__ucr2" 1
  36  0000              #pragma debug struct_end
  36  0000              #pragma debug struct_end
  36  0000              #pragma debug union_end
  36  0000              #pragma debug union_end
  36  0000              #pragma debug variable 65 1 ___brg "__brg" 1
  36  0000              #pragma debug struct_end
  36  0000              #pragma debug struct_end
  36  0000              #pragma debug union_end
  36  0000              #pragma debug union_end
  36  0000              #pragma debug variable 67 1 ___txr_rxr "__txr_rxr" 1
  36  0000              
  36  0000              ; output external variables
  36  0000              extern _capture_val:byte
  36  0000              extern _isr_temp0:byte
  36  0000              extern r1:byte
  36  0000              extern r2:byte
  36  0000              extern r3:byte
  36  0000              extern r4:byte
  36  0000              extern r5:byte
  36  0000              extern r6:byte
  36  0000              extern r7:byte
"File: Uart.c        Assembler  Version HGASM0202      Page 16

  36  0000              extern _Write_EEPROM_2:byte
  36  0000              extern _Write_EEPROM:near
  36  0000              extern _Read_EEPROM:near
  36  0000              
  36  0000              ; 
  36  0000              ; Generated by holtek-gcc v3.19, Sat Nov 21 20:24:30 2020
  36  0000              ; Rebuild 718
  36  0000              ; end of file


        0 Errors, 0